target datalayout = "e-m:e-p270:32:32-p271:32:32-p272:64:64-i64:64-i128:128-f80:128-n8:16:32:64-S128"
target triple = "x86_64-pc-linux-gnu"

%struct.asn1_string_st = type { i32, i32, ptr, i64 }
%struct.IPAddressOrRange_st = type { i32, %union.anon.0 }
%union.anon.0 = type { ptr }

@IPAddressOrRange_it.local_it = internal constant { i8, [7 x i8], i64, ptr, i64, ptr, i64, ptr } { i8 2, [7 x i8] zeroinitializer, i64 0, ptr @IPAddressOrRange_ch_tt, i64 2, ptr null, i64 16, ptr @.str.1 }, align 8

; Function Attrs: nounwind uwtable
define ptr @IPAddressOrRange_it() #0 {
  ret ptr @IPAddressOrRange_it.local_it
}

; Function Attrs: nounwind uwtable
define void @IPAddressOrRange_free(ptr noundef %0) #0 {
  %2 = alloca ptr, align 8
  store ptr %0, ptr %2, align 8, !tbaa !16
  %3 = load ptr, ptr %2, align 8, !tbaa !16
  %4 = call ptr @IPAddressOrRange_it()
  call void @ASN1_item_free(ptr noundef %3, ptr noundef %4)
  ret void
}

; Function Attrs: nounwind uwtable
define ptr @IPAddressOrRange_new() #0 {
  %1 = call ptr @IPAddressOrRange_it()
  %2 = call ptr @ASN1_item_new(ptr noundef %1)
  ret ptr %2
}

; Function Attrs: nounwind uwtable
define internal i32 @make_addressPrefix(ptr noundef %0, ptr noundef %1, i32 noundef %2, i32 noundef %3) #0 {
  %5 = alloca i32, align 4
  %6 = alloca ptr, align 8
  %7 = alloca ptr, align 8
  %8 = alloca i32, align 4
  %9 = alloca i32, align 4
  %10 = alloca i32, align 4
  %11 = alloca i32, align 4
  %12 = alloca ptr, align 8
  %13 = alloca i32, align 4
  store ptr %0, ptr %6, align 8, !tbaa !14
  store ptr %1, ptr %7, align 8, !tbaa !45
  store i32 %2, ptr %8, align 4, !tbaa !37
  store i32 %3, ptr %9, align 4, !tbaa !37
  call void @llvm.lifetime.start.p0(i64 4, ptr %10) #9
  %14 = load i32, ptr %8, align 4, !tbaa !37
  %15 = add nsw i32 %14, 7
  %16 = sdiv i32 %15, 8
  store i32 %16, ptr %10, align 4, !tbaa !37
  call void @llvm.lifetime.start.p0(i64 4, ptr %11) #9
  %17 = load i32, ptr %8, align 4, !tbaa !37
  %18 = srem i32 %17, 8
  store i32 %18, ptr %11, align 4, !tbaa !37
  call void @llvm.lifetime.start.p0(i64 8, ptr %12) #9
  %19 = load i32, ptr %8, align 4, !tbaa !37
  %20 = icmp slt i32 %19, 0
  br i1 %20, label %26, label %21

21:                                               ; preds = %4
  %22 = load i32, ptr %8, align 4, !tbaa !37
  %23 = load i32, ptr %9, align 4, !tbaa !37
  %24 = mul nsw i32 %23, 8
  %25 = icmp sgt i32 %22, %24
  br i1 %25, label %26, label %27

26:                                               ; preds = %21, %4
  store i32 0, ptr %5, align 4
  store i32 1, ptr %13, align 4
  br label %83

27:                                               ; preds = %21
  %28 = call ptr @IPAddressOrRange_new()
  store ptr %28, ptr %12, align 8, !tbaa !16
  %29 = icmp eq ptr %28, null
  br i1 %29, label %30, label %31

30:                                               ; preds = %27
  store i32 0, ptr %5, align 4
  store i32 1, ptr %13, align 4
  br label %83

31:                                               ; preds = %27
  %32 = load ptr, ptr %12, align 8, !tbaa !16
  %33 = getelementptr inbounds nuw %struct.IPAddressOrRange_st, ptr %32, i32 0, i32 0
  store i32 0, ptr %33, align 8, !tbaa !48
  %34 = load ptr, ptr %12, align 8, !tbaa !16
  %35 = getelementptr inbounds nuw %struct.IPAddressOrRange_st, ptr %34, i32 0, i32 1
  %36 = load ptr, ptr %35, align 8, !tbaa !34
  %37 = icmp eq ptr %36, null
  br i1 %37, label %38, label %44

38:                                               ; preds = %31
  %39 = call ptr @ASN1_BIT_STRING_new()
  %40 = load ptr, ptr %12, align 8, !tbaa !16
  %41 = getelementptr inbounds nuw %struct.IPAddressOrRange_st, ptr %40, i32 0, i32 1
  store ptr %39, ptr %41, align 8, !tbaa !34
  %42 = icmp eq ptr %39, null
  br i1 %42, label %43, label %44

43:                                               ; preds = %38
  br label %81

44:                                               ; preds = %38, %31
  %45 = load ptr, ptr %12, align 8, !tbaa !16
  %46 = getelementptr inbounds nuw %struct.IPAddressOrRange_st, ptr %45, i32 0, i32 1
  %47 = load ptr, ptr %46, align 8, !tbaa !34
  %48 = load ptr, ptr %7, align 8, !tbaa !45
  %49 = load i32, ptr %10, align 4, !tbaa !37
  %50 = call i32 @ASN1_BIT_STRING_set(ptr noundef %47, ptr noundef %48, i32 noundef %49)
  %51 = icmp ne i32 %50, 0
  br i1 %51, label %53, label %52

52:                                               ; preds = %44
  br label %81

53:                                               ; preds = %44
  %54 = load i32, ptr %11, align 4, !tbaa !37
  %55 = icmp sgt i32 %54, 0
  br i1 %55, label %56, label %73

56:                                               ; preds = %53
  %57 = load i32, ptr %11, align 4, !tbaa !37
  %58 = ashr i32 255, %57
  %59 = xor i32 %58, -1
  %60 = load ptr, ptr %12, align 8, !tbaa !16
  %61 = getelementptr inbounds nuw %struct.IPAddressOrRange_st, ptr %60, i32 0, i32 1
  %62 = load ptr, ptr %61, align 8, !tbaa !34
  %63 = getelementptr inbounds nuw %struct.asn1_string_st, ptr %62, i32 0, i32 2
  %64 = load ptr, ptr %63, align 8, !tbaa !29
  %65 = load i32, ptr %10, align 4, !tbaa !37
  %66 = sub nsw i32 %65, 1
  %67 = sext i32 %66 to i64
  %68 = getelementptr inbounds i8, ptr %64, i64 %67
  %69 = load i8, ptr %68, align 1, !tbaa !34
  %70 = zext i8 %69 to i32
  %71 = and i32 %70, %59
  %72 = trunc i32 %71 to i8
  store i8 %72, ptr %68, align 1, !tbaa !34
  br label %73

73:                                               ; preds = %56, %53
  %74 = load ptr, ptr %12, align 8, !tbaa !16
  %75 = getelementptr inbounds nuw %struct.IPAddressOrRange_st, ptr %74, i32 0, i32 1
  %76 = load ptr, ptr %75, align 8, !tbaa !34
  %77 = load i32, ptr %11, align 4, !tbaa !37
  %78 = sub nsw i32 8, %77
  call void @ossl_asn1_string_set_bits_left(ptr noundef %76, i32 noundef %78)
  %79 = load ptr, ptr %12, align 8, !tbaa !16
  %80 = load ptr, ptr %6, align 8, !tbaa !14
  store ptr %79, ptr %80, align 8, !tbaa !16
  store i32 1, ptr %5, align 4
  store i32 1, ptr %13, align 4
  br label %83

81:                                               ; preds = %52, %43
  %82 = load ptr, ptr %12, align 8, !tbaa !16
  call void @IPAddressOrRange_free(ptr noundef %82)
  store i32 0, ptr %5, align 4
  store i32 1, ptr %13, align 4
  br label %83

83:                                               ; preds = %81, %73, %30, %26
  call void @llvm.lifetime.end.p0(i64 8, ptr %12) #9
  call void @llvm.lifetime.end.p0(i64 4, ptr %11) #9
  call void @llvm.lifetime.end.p0(i64 4, ptr %10) #9
  %84 = load i32, ptr %5, align 4
  ret i32 %84
}