; Function Attrs: nounwind uwtable
define internal fastcc range(i32 0, 2) i32 @make_addressPrefix(ptr noundef nonnull writeonly captures(none) %0, ptr noundef %1, i32 noundef %2, i32 noundef range(i32 0, 17) %3) unnamed_addr #1 {
  %5 = add nsw i32 %2, 7
  %6 = sdiv i32 %5, 8
  %7 = srem i32 %2, 8
  %8 = icmp slt i32 %2, 0
  %9 = shl nuw nsw i32 %3, 3
  %10 = icmp samesign ugt i32 %2, %9
  %or.cond = select i1 %8, i1 true, i1 %10
  br i1 %or.cond, label %41, label %11

11:                                               ; preds = %4
  %12 = tail call ptr @ASN1_item_new(ptr noundef nonnull @IPAddressOrRange_it.local_it) #15
  %13 = icmp eq ptr %12, null
  br i1 %13, label %41, label %14

14:                                               ; preds = %11
  store i32 0, ptr %12, align 8, !tbaa !25
  %15 = getelementptr inbounds nuw i8, ptr %12, i64 8
  %16 = load ptr, ptr %15, align 8, !tbaa !16
  %17 = icmp eq ptr %16, null
  br i1 %17, label %18, label %21

18:                                               ; preds = %14
  %19 = tail call ptr @ASN1_BIT_STRING_new() #15
  store ptr %19, ptr %15, align 8, !tbaa !16
  %20 = icmp eq ptr %19, null
  br i1 %20, label %40, label %21

21:                                               ; preds = %18, %14
  %22 = phi ptr [ %19, %18 ], [ %16, %14 ]
  %23 = tail call i32 @ASN1_BIT_STRING_set(ptr noundef nonnull %22, ptr noundef %1, i32 noundef %6) #15
  %.not = icmp eq i32 %23, 0
  br i1 %.not, label %40, label %24

24:                                               ; preds = %21
  %25 = icmp sgt i32 %7, 0
  br i1 %25, label %26, label %37

26:                                               ; preds = %24
  %27 = ashr exact i32 -256, %7
  %28 = load ptr, ptr %15, align 8, !tbaa !16
  %29 = getelementptr inbounds nuw i8, ptr %28, i64 8
  %30 = load ptr, ptr %29, align 8, !tbaa !10
  %31 = zext nneg i32 %6 to i64
  %32 = getelementptr i8, ptr %30, i64 %31
  %33 = getelementptr i8, ptr %32, i64 -1
  %34 = load i8, ptr %33, align 1, !tbaa !16
  %35 = trunc i32 %27 to i8
  %36 = and i8 %34, %35
  store i8 %36, ptr %33, align 1, !tbaa !16
  br label %37

37:                                               ; preds = %26, %24
  %38 = load ptr, ptr %15, align 8, !tbaa !16
  %39 = sub nuw nsw i32 8, %7
  tail call void @ossl_asn1_string_set_bits_left(ptr noundef %38, i32 noundef %39) #15
  store ptr %12, ptr %0, align 8, !tbaa !23
  br label %41

40:                                               ; preds = %21, %18
  tail call void @ASN1_item_free(ptr noundef nonnull %12, ptr noundef nonnull @IPAddressOrRange_it.local_it) #15
  br label %41

41:                                               ; preds = %11, %4, %40, %37
  %.0 = phi i32 [ 0, %40 ], [ 1, %37 ], [ 0, %4 ], [ 0, %11 ]
  ret i32 %.0
}